Microchip MPLAB XC8 Compiler V2.50

Linker command line:

-W-3 \
  --edf=C:\Program Files\Microchip\xc8\v2.50\pic\dat\20240725155939_en.msgs \
  -cn -h+dist/default/production\24016_027_CAR_BLACK_BOX.X.production.sym \
  --cmf=dist/default/production\24016_027_CAR_BLACK_BOX.X.production.cmf -z \
  -Q18F4580 -oC:\Users\kesar\AppData\Local\Temp\xcAsmno.\driver_tmp_3.o \
  --defsym=__MPLAB_BUILD=1 --fixupoverflow=error \
  -Mdist/default/production/24016_027_CAR_BLACK_BOX.X.production.map \
  --md=C:\Users\kesar\AppData\Local\Temp\xcAsmno.\driver_tmp_0.dat -E1 \
  -ver=XC8 Compiler --acfsm=1493 -ACODE=00h-03000h -ACONST=00h-03000h \
  -ASMALLCONST=0600h-06FFhx42,03000h-03000h -AMEDIUMCONST=0600h-03000h \
  -ACOMRAM=01h-05Fh -AABS1=00h-05FFh -ABIGRAM=01h-05FFh \
  -ARAM=060h-0FFh,0100h-01FFhx5 -ABANK0=060h-0FFh -ABANK1=0100h-01FFh \
  -ABANK2=0200h-02FFh -ABANK3=0300h-03FFh -ABANK4=0400h-04FFh \
  -ABANK5=0500h-05FFh -ASFR=0D00h-0DFFhx2,0F00h-0F5Fh,0F60h-0FFFh \
  -ABIGSFR=0D00h-0FFFh -ACONFIG=0300000h-030000Dh -AIDLOC=0200000h-0200007h \
  -AEEDATA=0F00000h-0F000FFh -peeprom_data=EEDATA \
  -preset_vec=00h,intcode,sivt_hi,intcodelo,sivt_lo,powerup,init \
  -pramtop=0600h -psmallconst=SMALLCONST -pmediumconst=MEDIUMCONST \
  -pconst=CONST -AFARRAM=00h-00h \
  -prdata=COMRAM,nvrram=COMRAM,nvbit=COMRAM,rbss=COMRAM,rbit=COMRAM \
  -pfarbss=FARRAM,fardata=FARRAM,nvFARRAM=FARRAM \
  -pintsave_regs=BIGRAM,bigbss=BIGRAM,bigdata=BIGRAM -pbss=RAM \
  -pidata=CODE,irdata=CODE,ibigdata=CODE,ifardata=CODE -prparam=COMRAM \
  C:\Users\kesar\AppData\Local\Temp\xcAsmno.\driver_tmp_9.o \
  dist/default/production\24016_027_CAR_BLACK_BOX.X.production.o 

Object code version is 3.11

Machine type is 18F4580



                Name                               Link     Load   Length Selector   Space Scale
C:\Users\kesar\AppData\Local\Temp\xcAsmno.\driver_tmp_9.o
                idloc                            200000   200000        8        0       5
                config                           300000   300000        E        0       4
                init                                  0        0        4        0       0
dist/default/production\24016_027_CAR_BLACK_BOX.X.production.o
                idloc                            200000   200000        8        0       5
                config                           300000   300000        E        0       4
                mediumconst                        2F4C     2F4C       B4     17A6       0
                text40                             13E0     13E0       3A      9F0       0
                text39                             15DE     15DE       6C      AEF       0
                text38                             14D8     14D8       44      A6C       0
                text37                             12F4     12F4       18      97A       0
                text36                             1260     1260        6      930       0
                text35                             12CC     12CC       12      966       0
                text34                             126C     126C        8      936       0
                text33                             1298     1298        C      94C       0
                text32                             1274     1274        8      93A       0
                text31                             127C     127C        8      93E       0
                text30                             1284     1284        8      942       0
                text29                             12A4     12A4        C      952       0
                text28                             1362     1362       2A      9B1       0
                text27                             1810     1810       7E      C08       0
                text26                             2192     2192      2C8     10C9       0
                text25                             130C     130C       18      986       0
                text24                             151C     151C       5E      A8E       0
                text23                             1728     1728       74      B94       0
                text22                             125C     125C        4      92E       0
                text21                             188E     188E       A6      C47       0
                text20                             1266     1266        6      933       0
                text19                             12B0     12B0        C      958       0
                text18                             1324     1324       1E      992       0
                text17                             141A     141A       3E      A0D       0
                text16                             12DE     12DE       16      96F       0
                text15                             1342     1342       20      9A1       0
                text14                             179C     179C       74      BCE       0
                text13                             157A     157A       64      ABD       0
                text12                             2772     2772      7DA     13B9       0
                text11                             138C     138C       2A      9C6       0
                text10                             1458     1458       40      A2C       0
                text9                              19E2     19E2       C2      CF1       0
                text8                              1934     1934       AE      C9A       0
                text7                              13B6     13B6       2A      9DB       0
                text6                              1498     1498       40      A4C       0
                text5                              1BAA     1BAA      17E      DD5       0
                text4                              1D28     1D28      1FE      E94       0
                text3                              1AA4     1AA4      106      D52       0
                text2                              16B8     16B8       70      B5C       0
                text1                              245A     245A      318     122D       0
                text0                              1F26     1F26      26C      F93       0
                cstackCOMRAM                         3A       3A       1B        1       1
                bssBANK1                            100      100       B4      100       1
                dataBANK0                            60       60       10       60       1
                bssBANK0                             70       70        A       60       1
                dataCOMRAM                           55       55        B        1       1
                bssCOMRAM                             1        1       39        1       1
                cinit                              164A     164A       6E      B25       0
                idataBANK0                         12BC     12BC       10     12BC       0
                idataCOMRAM                        128D     128D        B     128D       0

TOTAL           Name                               Link     Load   Length     Space
        CLASS   CODE           
                init                                  0        0        4         0
                text40                             13E0     13E0       3A         0
                text39                             15DE     15DE       6C         0
                text38                             14D8     14D8       44         0
                text37                             12F4     12F4       18         0
                text36                             1260     1260        6         0
                text35                             12CC     12CC       12         0
                text34                             126C     126C        8         0
                text33                             1298     1298        C         0
                text32                             1274     1274        8         0
                text31                             127C     127C        8         0
                text30                             1284     1284        8         0
                text29                             12A4     12A4        C         0
                text28                             1362     1362       2A         0
                text27                             1810     1810       7E         0
                text26                             2192     2192      2C8         0
                text25                             130C     130C       18         0
                text24                             151C     151C       5E         0
                text23                             1728     1728       74         0
                text22                             125C     125C        4         0
                text21                             188E     188E       A6         0
                text20                             1266     1266        6         0
                text19                             12B0     12B0        C         0
                text18                             1324     1324       1E         0
                text17                             141A     141A       3E         0
                text16                             12DE     12DE       16         0
                text15                             1342     1342       20         0
                text14                             179C     179C       74         0
                text13                             157A     157A       64         0
                text12                             2772     2772      7DA         0
                text11                             138C     138C       2A         0
                text10                             1458     1458       40         0
                text9                              19E2     19E2       C2         0
                text8                              1934     1934       AE         0
                text7                              13B6     13B6       2A         0
                text6                              1498     1498       40         0
                text5                              1BAA     1BAA      17E         0
                text4                              1D28     1D28      1FE         0
                text3                              1AA4     1AA4      106         0
                text2                              16B8     16B8       70         0
                text1                              245A     245A      318         0
                text0                              1F26     1F26      26C         0
                cinit                              164A     164A       6E         0
                idataBANK0                         12BC     12BC       10         0
                idataCOMRAM                        128D     128D        B         0

        CLASS   CONST          

        CLASS   SMALLCONST     

        CLASS   MEDIUMCONST    
                mediumconst                        2F4C     2F4C       B4         0

        CLASS   COMRAM         
                cstackCOMRAM                         3A       3A       1B         1
                dataCOMRAM                           55       55        B         1
                bssCOMRAM                             1        1       39         1

        CLASS   ABS1           

        CLASS   BIGRAM         

        CLASS   RAM            

        CLASS   BANK0          
                dataBANK0                            60       60       10         1
                bssBANK0                             70       70        A         1

        CLASS   BANK1          
                bssBANK1                            100      100       B4         1

        CLASS   BANK2          

        CLASS   BANK3          

        CLASS   BANK4          

        CLASS   BANK5          

        CLASS   SFR            

        CLASS   BIGSFR         

        CLASS   CONFIG         
                config                           300000   300000        E         4

        CLASS   IDLOC          
                idloc                            200000   200000        8         5

        CLASS   EEDATA         

        CLASS   FARRAM         

        CLASS   HEAP           

        CLASS   STACK          



SEGMENTS        Name                           Load    Length   Top    Selector   Space  Class

                reset_vec                      000000  000004  000004         0       0  CODE    
                bssCOMRAM                      000001  00005F  000060         1       1  COMRAM  
                dataBANK0                      000060  00001A  00007A        60       1  BANK0   
                bssBANK1                       000100  0000B4  0001B4       100       1  BANK1   
                text22                         00125C  000004  001260       92E       0  CODE    
                text36                         001260  000006  001266       930       0  CODE    
                text20                         001266  000006  00126C       933       0  CODE    
                text34                         00126C  000008  001274       936       0  CODE    
                text32                         001274  000008  00127C       93A       0  CODE    
                text31                         00127C  000008  001284       93E       0  CODE    
                text30                         001284  000008  00128C       942       0  CODE    
                idataCOMRAM                    00128D  00000B  001298      128D       0  CODE    
                text33                         001298  00000C  0012A4       94C       0  CODE    
                text29                         0012A4  00000C  0012B0       952       0  CODE    
                text19                         0012B0  00000C  0012BC       958       0  CODE    
                idataBANK0                     0012BC  000010  0012CC      12BC       0  CODE    
                text35                         0012CC  000012  0012DE       966       0  CODE    
                text16                         0012DE  000016  0012F4       96F       0  CODE    
                text37                         0012F4  000018  00130C       97A       0  CODE    
                text25                         00130C  000018  001324       986       0  CODE    
                text18                         001324  00001E  001342       992       0  CODE    
                text15                         001342  000020  001362       9A1       0  CODE    
                text28                         001362  00002A  00138C       9B1       0  CODE    
                text11                         00138C  00002A  0013B6       9C6       0  CODE    
                text7                          0013B6  00002A  0013E0       9DB       0  CODE    
                text40                         0013E0  00003A  00141A       9F0       0  CODE    
                text17                         00141A  00003E  001458       A0D       0  CODE    
                text10                         001458  000040  001498       A2C       0  CODE    
                text6                          001498  000040  0014D8       A4C       0  CODE    
                text38                         0014D8  000044  00151C       A6C       0  CODE    
                text24                         00151C  00005E  00157A       A8E       0  CODE    
                text13                         00157A  000064  0015DE       ABD       0  CODE    
                text39                         0015DE  00006C  00164A       AEF       0  CODE    
                cinit                          00164A  00006E  0016B8       B25       0  CODE    
                text2                          0016B8  000070  001728       B5C       0  CODE    
                text23                         001728  000074  00179C       B94       0  CODE    
                text14                         00179C  000074  001810       BCE       0  CODE    
                text27                         001810  00007E  00188E       C08       0  CODE    
                text21                         00188E  0000A6  001934       C47       0  CODE    
                text8                          001934  0000AE  0019E2       C9A       0  CODE    
                text9                          0019E2  0000C2  001AA4       CF1       0  CODE    
                text3                          001AA4  000106  001BAA       D52       0  CODE    
                text5                          001BAA  00017E  001D28       DD5       0  CODE    
                text4                          001D28  0001FE  001F26       E94       0  CODE    
                text0                          001F26  00026C  002192       F93       0  CODE    
                text26                         002192  0002C8  00245A      10C9       0  CODE    
                text1                          00245A  000318  002772      122D       0  CODE    
                text12                         002772  0007DA  002F4C      13B9       0  CODE    
                mediumconst                    002F4C  0000B4  003000      17A6       0  MEDIUMCO


UNUSED ADDRESS RANGES

        Name                Unused          Largest block    Delta
        BANK0            00007A-0000FF               86
        BANK1            0001B4-0001FF               4C
        BANK2            000200-0002FF              100
        BANK3            000300-0003FF              100
        BANK4            000400-0004FF              100
        BANK5            000500-0005FF              100
        BIGRAM           00007A-0000FF               86
                         0001B4-0005FF              44C
        BIGSFR           000D00-000FFF              300
        CODE             000004-00125B             1258
                         00128C-00128C                1
                         003000-003000                1
        CONST            000004-00125B             1258
                         00128C-00128C                1
                         003000-003000                1
        EEDATA           F00000-F000FF              100
        MEDIUMCONST      000600-00125B              C5C
                         00128C-00128C                1
                         003000-003000                1
        RAM              00007A-0000FF               86
                         0001B4-0005FF              100
        SFR              000D00-000FFF              100
        SMALLCONST       000600-00125B              100
                         00128C-00128C                1
                         003000-003000                1

                                  Symbol Table

?___awdiv                         cstackCOMRAM 00003A
?___awmod                         cstackCOMRAM 00003A
?___lwdiv                         cstackCOMRAM 00003A
?___lwmod                         cstackCOMRAM 00003A
?_read_adc                        cstackCOMRAM 00003A
_ACKDT                            (abs)        007E2D
_ACKEN                            (abs)        007E2C
_ACKSTAT                          (abs)        007E2E
_ACQT0                            (abs)        007E03
_ACQT1                            (abs)        007E04
_ACQT2                            (abs)        007E05
_ADCS0                            (abs)        007E00
_ADCS1                            (abs)        007E01
_ADCS2                            (abs)        007E02
_ADFM                             (abs)        007E07
_ADON                             (abs)        007E10
_ADRESH                           (abs)        000FC4
_ADRESL                           (abs)        000FC3
_BCLIF                            (abs)        007D0B
_BRG16                            (abs)        007DC3
_BRGH                             (abs)        007D62
_CHS0                             (abs)        007E12
_CHS1                             (abs)        007E13
_CHS2                             (abs)        007E14
_CHS3                             (abs)        007E15
_CKE                              (abs)        007E3E
_CREN                             (abs)        007D5C
_GO                               (abs)        007E11
_PCFG0                            (abs)        007E08
_PCFG1                            (abs)        007E09
_PCFG2                            (abs)        007E0A
_PCFG3                            (abs)        007E0B
_PEN                              (abs)        007E2A
_PORTD                            (abs)        000F83
_RB1                              (abs)        007C09
_RB2                              (abs)        007C0A
_RB3                              (abs)        007C0B
_RB4                              (abs)        007C0C
_RB5                              (abs)        007C0D
_RB6                              (abs)        007C0E
_RB7                              (abs)        007C0F
_RBPU                             (abs)        007F8F
_RC0                              (abs)        007C10
_RC1                              (abs)        007C11
_RC2                              (abs)        007C12
_RCEN                             (abs)        007E2B
_RCIF                             (abs)        007CF5
_RCREG                            (abs)        000FAE
_RD7                              (abs)        007C1F
_RSEN                             (abs)        007E29
_RX9                              (abs)        007D5E
_SEN                              (abs)        007E28
_SENDB                            (abs)        007D63
_SMP                              (abs)        007E3F
_SPBRG                            (abs)        000FAF
_SPEN                             (abs)        007D5F
_SSPADD                           (abs)        000FC8
_SSPBUF                           (abs)        000FC9
_SSPCON1                          (abs)        000FC6
_SSPIF                            (abs)        007CF3
_SYNC                             (abs)        007D64
_TRISB                            (abs)        000F93
_TRISC                            (abs)        000F94
_TRISC3                           (abs)        007CA3
_TRISC4                           (abs)        007CA4
_TRISC6                           (abs)        007CA6
_TRISC7                           (abs)        007CA7
_TRISD                            (abs)        000F95
_TRISD7                           (abs)        007CAF
_TX9                              (abs)        007D66
_TXEN                             (abs)        007D65
_TXIF                             (abs)        007CF4
_TXREG                            (abs)        000FAD
_VCFG0                            (abs)        007E0C
_VCFG1                            (abs)        007E0D
__HRAM                            (abs)        000000
__H__absolute__                   __absolute__ 000000
__Habs1                           abs1         000000
__Hbank0                          bank0        000000
__Hbank1                          bank1        000000
__Hbank2                          bank2        000000
__Hbank3                          bank3        000000
__Hbank4                          bank4        000000
__Hbank5                          bank5        000000
__Hbigbss                         bigbss       000000
__Hbigdata                        bigdata      000000
__Hbigram                         bigram       000000
__Hbigsfr                         bigsfr       000000
__Hbss                            bss          000000
__HbssBANK0                       bssBANK0     000000
__HbssBANK1                       bssBANK1     000000
__HbssCOMRAM                      bssCOMRAM    000000
__Hcinit                          cinit        000000
__Hclrtext                        clrtext      000000
__Hcomram                         comram       000000
__Hconfig                         config       30000E
__Hconst                          const        000000
__HcstackCOMRAM                   cstackCOMRAM 000000
__Hdata                           data         000000
__HdataBANK0                      dataBANK0    000000
__HdataCOMRAM                     dataCOMRAM   000000
__Heeprom_data                    eeprom_data  000000
__Hfarbss                         farbss       000000
__Hfardata                        fardata      000000
__Hheap                           heap         000000
__Hibigdata                       ibigdata     000000
__Hidata                          idata        000000
__HidataBANK0                     idataBANK0   000000
__HidataCOMRAM                    idataCOMRAM  000000
__Hidloc                          idloc        200008
__Hifardata                       ifardata     000000
__Hinit                           init         000004
__Hintcode                        intcode      000000
__Hintcode_body                   intcode_body 000000
__Hintcodelo                      intcodelo    000000
__Hintentry                       intentry     000000
__Hintret                         intret       000000
__Hintsave_regs                   intsave_regs 000000
__Hirdata                         irdata       000000
__Hmediumconst                    mediumconst  003000
__HnvFARRAM                       nvFARRAM     000000
__Hnvbit                          nvbit        000000
__Hnvrram                         nvrram       000000
__Hparam                          rparam       000000
__Hpowerup                        powerup      000000
__Hram                            ram          000000
__Hramtop                         ramtop       000600
__Hrbit                           rbit         000000
__Hrbss                           rbss         000000
__Hrdata                          rdata        000000
__Hreset_vec                      reset_vec    000000
__Hrparam                         rparam       000000
__Hsfr                            sfr          000000
__Hsivt_hi                        sivt_hi      000000
__Hsivt_lo                        sivt_lo      000000
__Hsmallconst                     smallconst   000000
__Hspace_0                        (abs)        003000
__Hspace_1                        (abs)        0001B4
__Hspace_2                        (abs)        000000
__Hspace_4                        (abs)        60000E
__Hstack                          stack        000000
__Hstruct                         struct       000000
__Htemp                           temp         000000
__Htext                           text         000000
__Htext0                          text0        000000
__Htext1                          text1        000000
__Htext10                         text10       000000
__Htext11                         text11       000000
__Htext12                         text12       000000
__Htext13                         text13       000000
__Htext14                         text14       000000
__Htext15                         text15       000000
__Htext16                         text16       000000
__Htext17                         text17       000000
__Htext18                         text18       000000
__Htext19                         text19       000000
__Htext2                          text2        000000
__Htext20                         text20       000000
__Htext21                         text21       000000
__Htext22                         text22       000000
__Htext23                         text23       000000
__Htext24                         text24       000000
__Htext25                         text25       000000
__Htext26                         text26       000000
__Htext27                         text27       000000
__Htext28                         text28       000000
__Htext29                         text29       000000
__Htext3                          text3        000000
__Htext30                         text30       000000
__Htext31                         text31       000000
__Htext32                         text32       000000
__Htext33                         text33       000000
__Htext34                         text34       000000
__Htext35                         text35       000000
__Htext36                         text36       000000
__Htext37                         text37       000000
__Htext38                         text38       000000
__Htext39                         text39       000000
__Htext4                          text4        000000
__Htext40                         text40       000000
__Htext5                          text5        000000
__Htext6                          text6        000000
__Htext7                          text7        000000
__Htext8                          text8        000000
__Htext9                          text9        000000
__LRAM                            (abs)        000001
__L__absolute__                   __absolute__ 000000
__Labs1                           abs1         000000
__Lbank0                          bank0        000000
__Lbank1                          bank1        000000
__Lbank2                          bank2        000000
__Lbank3                          bank3        000000
__Lbank4                          bank4        000000
__Lbank5                          bank5        000000
__Lbigbss                         bigbss       000000
__Lbigdata                        bigdata      000000
__Lbigram                         bigram       000000
__Lbigsfr                         bigsfr       000000
__Lbss                            bss          000000
__LbssBANK0                       bssBANK0     000000
__LbssBANK1                       bssBANK1     000000
__LbssCOMRAM                      bssCOMRAM    000000
__Lcinit                          cinit        000000
__Lclrtext                        clrtext      000000
__Lcomram                         comram       000000
__Lconfig                         config       000000
__Lconst                          const        000000
__LcstackCOMRAM                   cstackCOMRAM 000000
__Ldata                           data         000000
__LdataBANK0                      dataBANK0    000000
__LdataCOMRAM                     dataCOMRAM   000000
__Leeprom_data                    eeprom_data  000000
__Lfarbss                         farbss       000000
__Lfardata                        fardata      000000
__Lheap                           heap         000000
__Libigdata                       ibigdata     000000
__Lidata                          idata        000000
__LidataBANK0                     idataBANK0   000000
__LidataCOMRAM                    idataCOMRAM  000000
__Lidloc                          idloc        000000
__Lifardata                       ifardata     000000
__Linit                           init         000000
__Lintcode                        intcode      000000
__Lintcode_body                   intcode_body 000000
__Lintcodelo                      intcodelo    000000
__Lintentry                       intentry     000000
__Lintret                         intret       000000
__Lintsave_regs                   intsave_regs 000000
__Lirdata                         irdata       000000
__Lmediumconst                    mediumconst  002F4C
__LnvFARRAM                       nvFARRAM     000000
__Lnvbit                          nvbit        000000
__Lnvrram                         nvrram       000000
__Lparam                          rparam       000000
__Lpowerup                        powerup      000000
__Lram                            ram          000000
__Lramtop                         ramtop       000600
__Lrbit                           rbit         000000
__Lrbss                           rbss         000000
__Lrdata                          rdata        000000
__Lreset_vec                      reset_vec    000000
__Lrparam                         rparam       000000
__Lsfr                            sfr          000000
__Lsivt_hi                        sivt_hi      000000
__Lsivt_lo                        sivt_lo      000000
__Lsmallconst                     smallconst   000000
__Lspace_0                        (abs)        000000
__Lspace_1                        (abs)        000000
__Lspace_2                        (abs)        000000
__Lspace_4                        (abs)        000000
__Lstack                          stack        000000
__Lstruct                         struct       000000
__Ltemp                           temp         000000
__Ltext                           text         000000
__Ltext0                          text0        000000
__Ltext1                          text1        000000
__Ltext10                         text10       000000
__Ltext11                         text11       000000
__Ltext12                         text12       000000
__Ltext13                         text13       000000
__Ltext14                         text14       000000
__Ltext15                         text15       000000
__Ltext16                         text16       000000
__Ltext17                         text17       000000
__Ltext18                         text18       000000
__Ltext19                         text19       000000
__Ltext2                          text2        000000
__Ltext20                         text20       000000
__Ltext21                         text21       000000
__Ltext22                         text22       000000
__Ltext23                         text23       000000
__Ltext24                         text24       000000
__Ltext25                         text25       000000
__Ltext26                         text26       000000
__Ltext27                         text27       000000
__Ltext28                         text28       000000
__Ltext29                         text29       000000
__Ltext3                          text3        000000
__Ltext30                         text30       000000
__Ltext31                         text31       000000
__Ltext32                         text32       000000
__Ltext33                         text33       000000
__Ltext34                         text34       000000
__Ltext35                         text35       000000
__Ltext36                         text36       000000
__Ltext37                         text37       000000
__Ltext38                         text38       000000
__Ltext39                         text39       000000
__Ltext4                          text4        000000
__Ltext40                         text40       000000
__Ltext5                          text5        000000
__Ltext6                          text6        000000
__Ltext7                          text7        000000
__Ltext8                          text8        000000
__Ltext9                          text9        000000
__S0                              (abs)        003000
__S1                              (abs)        0001B4
__S4                              (abs)        000000
__S5                              (abs)        000000
___awdiv                          text9        0019E2
___awdiv@counter                  cstackCOMRAM 00003E
___awdiv@dividend                 cstackCOMRAM 00003A
___awdiv@divisor                  cstackCOMRAM 00003C
___awdiv@quotient                 cstackCOMRAM 000040
___awdiv@sign                     cstackCOMRAM 00003F
___awmod                          text8        001934
___awmod@counter                  cstackCOMRAM 00003E
___awmod@dividend                 cstackCOMRAM 00003A
___awmod@divisor                  cstackCOMRAM 00003C
___awmod@sign                     cstackCOMRAM 00003F
___heap_hi                        (abs)        000000
___heap_lo                        (abs)        000000
___inthi_sp                       stack        000000
___inthi_stack_hi                 stack        000000
___inthi_stack_lo                 stack        000000
___intlo_sp                       stack        000000
___intlo_stack_hi                 stack        000000
___intlo_stack_lo                 stack        000000
___lwdiv                          text14       00179C
___lwdiv@counter                  cstackCOMRAM 000040
___lwdiv@dividend                 cstackCOMRAM 00003A
___lwdiv@divisor                  cstackCOMRAM 00003C
___lwdiv@quotient                 cstackCOMRAM 00003E
___lwmod                          text13       00157A
___lwmod@counter                  cstackCOMRAM 00003E
___lwmod@dividend                 cstackCOMRAM 00003A
___lwmod@divisor                  cstackCOMRAM 00003C
___param_bank                     (abs)        000000
___rparam_used                    (abs)        000001
___sp                             stack        000000
___stack_hi                       stack        000000
___stack_lo                       stack        000000
__accesstop                       (abs)        000060
__activetblptr                    (abs)        000002
__end_of___awdiv                  text9        001AA4
__end_of___awmod                  text8        0019E2
__end_of___lwdiv                  text14       001810
__end_of___lwmod                  text13       0015DE
__end_of__initialization          cinit        0016AE
__end_of_clcd_print               text39       00164A
__end_of_clcd_putch               text37       00130C
__end_of_clcd_write               text40       00141A
__end_of_clear_log                text38       00151C
__end_of_display_main_menu        text26       00245A
__end_of_download_log             text23       00179C
__end_of_get_time                 text27       00188E
__end_of_i2c_idle                 text35       0012DE
__end_of_i2c_no_ack               text36       001266
__end_of_i2c_read                 text33       0012A4
__end_of_i2c_rep_start            text32       00127C
__end_of_i2c_rx_mode              text34       001274
__end_of_i2c_start                text31       001284
__end_of_i2c_stop                 text30       00128C
__end_of_i2c_write                text29       0012B0
__end_of_init_adc                 text11       0013B6
__end_of_init_clcd                text21       001934
__end_of_init_config              text22       001260
__end_of_init_config1             text20       00126C
__end_of_init_config2             text19       0012BC
__end_of_init_ds1307              text17       001458
__end_of_init_i2c                 text16       0012F4
__end_of_init_uart                text15       001362
__end_of_main                     text0        002192
__end_of_putch                    text25       001324
__end_of_puts                     text24       00157A
__end_of_read_adc                 text10       001498
__end_of_read_ds1307              text28       00138C
__end_of_read_external_eeprom     text7        0013E0
__end_of_read_matrix_keypad       text2        001728
__end_of_scan_key                 text3        001BAA
__end_of_set_time                 text12       002F4C
__end_of_store_events             text5        001D28
__end_of_view_dashboard           text4        001F26
__end_of_view_log                 text1        002772
__end_of_write_ds1307             text18       001342
__end_of_write_external_eeprom    text6        0014D8
__initialization                  cinit        00164A
__mediumconst                     mediumconst  002F4C
__pbssBANK0                       bssBANK0     000070
__pbssBANK1                       bssBANK1     000100
__pbssCOMRAM                      bssCOMRAM    000001
__pcinit                          cinit        00164A
__pcstackCOMRAM                   cstackCOMRAM 00003A
__pdataBANK0                      dataBANK0    000060
__pdataCOMRAM                     dataCOMRAM   000055
__pidataBANK0                     idataBANK0   0012BC
__pidataCOMRAM                    idataCOMRAM  00128D
__pmediumconst                    mediumconst  002F4C
__ptext0                          text0        001F26
__ptext1                          text1        00245A
__ptext10                         text10       001458
__ptext11                         text11       00138C
__ptext12                         text12       002772
__ptext13                         text13       00157A
__ptext14                         text14       00179C
__ptext15                         text15       001342
__ptext16                         text16       0012DE
__ptext17                         text17       00141A
__ptext18                         text18       001324
__ptext19                         text19       0012B0
__ptext2                          text2        0016B8
__ptext20                         text20       001266
__ptext21                         text21       00188E
__ptext22                         text22       00125C
__ptext23                         text23       001728
__ptext24                         text24       00151C
__ptext25                         text25       00130C
__ptext26                         text26       002192
__ptext27                         text27       001810
__ptext28                         text28       001362
__ptext29                         text29       0012A4
__ptext3                          text3        001AA4
__ptext30                         text30       001284
__ptext31                         text31       00127C
__ptext32                         text32       001274
__ptext33                         text33       001298
__ptext34                         text34       00126C
__ptext35                         text35       0012CC
__ptext36                         text36       001260
__ptext37                         text37       0012F4
__ptext38                         text38       0014D8
__ptext39                         text39       0015DE
__ptext4                          text4        001D28
__ptext40                         text40       0013E0
__ptext5                          text5        001BAA
__ptext6                          text6        001498
__ptext7                          text7        0013B6
__ptext8                          text8        001934
__ptext9                          text9        0019E2
__ramtop                          ramtop       000600
__smallconst                      smallconst   000000
_add                              bssCOMRAM    000014
_blink                            dataCOMRAM   00005D
_calender_reg                     bssCOMRAM    000001
_change_index                     bssCOMRAM    00000E
_change_menu                      bssCOMRAM    00001A
_clcd_print                       text39       0015DE
_clcd_putch                       text37       0012F4
_clcd_write                       text40       0013E0
_clear_log                        text38       0014D8
_clock_reg                        bssCOMRAM    000005
_count1                           bssCOMRAM    000012
_count2                           bssCOMRAM    000010
_crush                            bssCOMRAM    000016
_display_main_menu                text26       002192
_download_log                     text23       001728
_flag_menu                        bssCOMRAM    000024
_gear                             dataBANK0    000060
_get_time                         text27       001810
_hms                              bssCOMRAM    000008
_hour                             bssCOMRAM    000028
_i2c_idle                         text35       0012CC
_i2c_no_ack                       text36       001260
_i2c_read                         text33       001298
_i2c_rep_start                    text32       001274
_i2c_rx_mode                      text34       00126C
_i2c_start                        text31       00127C
_i2c_stop                         text30       001284
_i2c_write                        text29       0012A4
_ind                              bssCOMRAM    00000C
_index                            bssCOMRAM    000020
_init_adc                         text11       00138C
_init_clcd                        text21       00188E
_init_config                      text22       00125C
_init_config1                     text20       001266
_init_config2                     text19       0012B0
_init_ds1307                      text17       00141A
_init_i2c                         text16       0012DE
_init_uart                        text15       001342
_key                              bssCOMRAM    00002F
_main                             text0        001F26
_main_index                       bssCOMRAM    00002C
_main_menu                        dataCOMRAM   000055
_min                              bssCOMRAM    00002A
_once                             bssCOMRAM    00001E
_putch                            text25       00130C
_puts                             text24       00151C
_read_adc                         text10       001458
_read_ds1307                      text28       001362
_read_external_eeprom             text7        0013B6
_read_matrix_keypad               text2        0016B8
_scan_key                         text3        001AA4
_sec                              bssCOMRAM    000026
_set_flag                         bssCOMRAM    00001C
_set_time                         text12       002772
_speed_count                      bssCOMRAM    000018
_state                            bssCOMRAM    000030
_store_count                      bssCOMRAM    000022
_store_events                     text5        001BAA
_str                              bssBANK0     000070
_str1                             bssBANK1     000100
_time                             bssCOMRAM    000031
_view                             bssCOMRAM    00000A
_view_dashboard                   text4        001D28
_view_log                         text1        00245A
_write_addr                       bssCOMRAM    00002E
_write_ds1307                     text18       001324
_write_external_eeprom            text6        001498
clcd_print@addr                   cstackCOMRAM 00003E
clcd_print@data                   cstackCOMRAM 00003C
clcd_putch@addr                   cstackCOMRAM 000041
clcd_putch@data                   cstackCOMRAM 000042
clcd_write@byte                   cstackCOMRAM 00003B
clcd_write@control_bit            cstackCOMRAM 00003A
clear_log@i                       cstackCOMRAM 00003F
display_main_menu@i               cstackCOMRAM 000043
download_log@i                    cstackCOMRAM 000041
end_of_initialization             cinit        0016AE
i2c_write@data                    cstackCOMRAM 00003A
init_ds1307@dummy                 cstackCOMRAM 000043
intlevel0                         text         000000
intlevel1                         text         000000
intlevel2                         text         000000
intlevel3                         text         000000
isa$std                           (abs)        000001
isa$xinst                         (abs)        000000
putch@byte                        cstackCOMRAM 00003A
puts@s                            cstackCOMRAM 00003B
read_ds1307@address               cstackCOMRAM 00003B
read_ds1307@data                  cstackCOMRAM 00003C
read_external_eeprom@address      cstackCOMRAM 00003B
read_external_eeprom@data         cstackCOMRAM 00003C
read_matrix_keypad@detection_type cstackCOMRAM 00003A
read_matrix_keypad@key            cstackCOMRAM 00003B
read_matrix_keypad@once           dataCOMRAM   00005F
set_time@i                        cstackCOMRAM 000047
set_time@i_758                    cstackCOMRAM 00004B
set_time@i_759                    cstackCOMRAM 00004F
stackhi                           (abs)        000000
stacklo                           (abs)        000000
start                             init         000000
start_initialization              cinit        00164A
store_events@b                    cstackCOMRAM 00004D
store_events@gear                 cstackCOMRAM 000043
store_events@i                    cstackCOMRAM 00004B
store_events@i_290                cstackCOMRAM 000049
store_events@speed                cstackCOMRAM 000045
store_events@time                 cstackCOMRAM 000042
view_log@add                      cstackCOMRAM 000047
view_log@i                        cstackCOMRAM 000043
view_log@i_477                    cstackCOMRAM 000049
view_log@j                        cstackCOMRAM 00004B
write_ds1307@address              cstackCOMRAM 000042
write_ds1307@data                 cstackCOMRAM 000041
write_external_eeprom@address     cstackCOMRAM 000040
write_external_eeprom@data        cstackCOMRAM 00003D
write_external_eeprom@i           cstackCOMRAM 00003E


MODULE INFORMATION

Module		Function		Class		Link	Load	Size
matrix_keypad.c
		_read_matrix_keypad		CODE           	16B8	0000	112

matrix_keypad.c estimated size: 112

uart.c
		_putch         		CODE           	130C	0000	24
		_init_uart     		CODE           	1342	0000	32
		_puts          		CODE           	151C	0000	94

uart.c estimated size: 150

I2C.c
		_i2c_start     		CODE           	127C	0000	8
		_i2c_no_ack    		CODE           	1260	0000	6
		_i2c_rep_start 		CODE           	1274	0000	8
		_i2c_idle      		CODE           	12CC	0000	18
		_i2c_write     		CODE           	12A4	0000	12
		_i2c_stop      		CODE           	1284	0000	8
		_i2c_read      		CODE           	1298	0000	12
		_init_i2c      		CODE           	12DE	0000	22
		_i2c_rx_mode   		CODE           	126C	0000	8

I2C.c estimated size: 102

C:\Program Files\Microchip\xc8\v2.50\pic\sources\c99\common\lwmod.c
		___lwmod       		CODE           	157A	0000	100

C:\Program Files\Microchip\xc8\v2.50\pic\sources\c99\common\lwmod.c estimated size: 100

C:\Program Files\Microchip\xc8\v2.50\pic\sources\c99\common\awmod.c
		___awmod       		CODE           	1934	0000	174

C:\Program Files\Microchip\xc8\v2.50\pic\sources\c99\common\awmod.c estimated size: 174

display_main_menu.c
		_display_main_menu		CODE           	2192	0000	712

display_main_menu.c estimated size: 712

dashboard.c
		_view_dashboard		CODE           	1D28	0000	510
		_store_events  		CODE           	1BAA	0000	382

dashboard.c estimated size: 892

doenload.c
		_download_log  		CODE           	1728	0000	116

doenload.c estimated size: 116

newmain.c
		_main          		CODE           	1F26	0000	620
		_get_time      		CODE           	1810	0000	126
		_init_config   		CODE           	125C	0000	4
		_init_config1  		CODE           	1266	0000	6
		_init_config2  		CODE           	12B0	0000	12

newmain.c estimated size: 768

adc.c
		_init_adc      		CODE           	138C	0000	42
		_read_adc      		CODE           	1458	0000	64

adc.c estimated size: 106

scan_key.c
		_scan_key      		CODE           	1AA4	0000	262

scan_key.c estimated size: 262

clear_log.c
		_clear_log     		CODE           	14D8	0000	68

clear_log.c estimated size: 68

shared
		__initialization		CODE           	164A	0000	100

shared estimated size: 100

clcd.c
		_clcd_write    		CODE           	13E0	0000	58
		_clcd_print    		CODE           	15DE	0000	108
		_clcd_putch    		CODE           	12F4	0000	24
		_init_clcd     		CODE           	188E	0000	166

clcd.c estimated size: 356

C:\Program Files\Microchip\xc8\v2.50\pic\sources\c99\common\lwdiv.c
		___lwdiv       		CODE           	179C	0000	116

C:\Program Files\Microchip\xc8\v2.50\pic\sources\c99\common\lwdiv.c estimated size: 116

C:\Program Files\Microchip\xc8\v2.50\pic\sources\c99\common\awdiv.c
		___awdiv       		CODE           	19E2	0000	194

C:\Program Files\Microchip\xc8\v2.50\pic\sources\c99\common\awdiv.c estimated size: 194

external.c
		_write_external_eeprom		CODE           	1498	0000	64
		_read_external_eeprom		CODE           	13B6	0000	42

external.c estimated size: 106

set_time.c
		_set_time      		CODE           	2772	0000	2010

set_time.c estimated size: 2010

view_log.c
		_view_log      		CODE           	245A	0000	792

view_log.c estimated size: 792

RTC.c
		_read_ds1307   		CODE           	1362	0000	42
		_write_ds1307  		CODE           	1324	0000	30
		_init_ds1307   		CODE           	141A	0000	62

RTC.c estimated size: 134

